target datalayout = "e-m:e-p270:32:32-p271:32:32-p272:64:64-i64:64-i128:128-f80:128-n8:16:32:64-S128"
target triple = "x86_64-pc-linux-gnu"

%struct.AVFormatContext = type { ptr, ptr, ptr, ptr, ptr, i32, i32, ptr, i32, ptr, i32, ptr, ptr, i64, i64, i64, i32, i32, i32, i64, i64, ptr, i32, i32, ptr, i32, i32, i32, i32, ptr, i64, i32, i32, %struct.AVIOInterruptCB, i32, i32, i32, i32, i64, i32, i32, i32, i32, i32, i32, i32, i32, i32, i32, i32, i32, i64, i32, i32, i32, i32, i32, ptr, ptr, ptr, ptr, i32, ptr, ptr, ptr, ptr, i32, ptr, ptr, i64, ptr, ptr, ptr, i64 }
%struct.AVIOInterruptCB = type { ptr, ptr }
%struct.WebMChunkContext = type { ptr, ptr, i32, i32, ptr, i64, i64, ptr, i32 }
%struct.AVStream = type { ptr, i32, i32, ptr, ptr, %struct.AVRational, i64, i64, i64, i32, i32, %struct.AVRational, ptr, %struct.AVRational, %struct.AVPacket, i32, %struct.AVRational, i32 }
%struct.AVPacket = type { ptr, i64, i64, ptr, i32, i32, i32, ptr, i32, i64, i64, ptr, ptr, %struct.AVRational }
%struct.AVRational = type { i32, i32 }
%struct.AVCodecParameters = type { i32, i32, i32, ptr, i32, ptr, i32, i32, i64, i32, i32, i32, i32, i32, i32, %struct.AVRational, %struct.AVRational, i32, i32, i32, i32, i32, i32, i32, %struct.AVChannelLayout, i32, i32, i32, i32, i32, i32 }
%struct.AVChannelLayout = type { i32, i32, %union.anon.0, ptr }
%union.anon.0 = type { i64 }

; Function Attrs: nounwind uwtable
define internal i32 @chunk_start(ptr noundef %0) #0 {
  %2 = alloca i32, align 4
  %3 = alloca ptr, align 8
  %4 = alloca ptr, align 8
  %5 = alloca ptr, align 8
  %6 = alloca i32, align 4
  %7 = alloca i32, align 4
  store ptr %0, ptr %3, align 8, !tbaa !4
  call void @llvm.lifetime.start.p0(i64 8, ptr %4) #6
  %8 = load ptr, ptr %3, align 8, !tbaa !4
  %9 = getelementptr inbounds nuw %struct.AVFormatContext, ptr %8, i32 0, i32 3
  %10 = load ptr, ptr %9, align 8, !tbaa !9
  store ptr %10, ptr %4, align 8, !tbaa !26
  call void @llvm.lifetime.start.p0(i64 8, ptr %5) #6
  %11 = load ptr, ptr %4, align 8, !tbaa !26
  %12 = getelementptr inbounds nuw %struct.WebMChunkContext, ptr %11, i32 0, i32 7
  %13 = load ptr, ptr %12, align 8, !tbaa !28
  store ptr %13, ptr %5, align 8, !tbaa !4
  call void @llvm.lifetime.start.p0(i64 4, ptr %6) #6
  %14 = load ptr, ptr %5, align 8, !tbaa !4
  %15 = getelementptr inbounds nuw %struct.AVFormatContext, ptr %14, i32 0, i32 4
  %16 = call i32 @avio_open_dyn_buf(ptr noundef %15)
  store i32 %16, ptr %6, align 4, !tbaa !33
  %17 = load i32, ptr %6, align 4, !tbaa !33
  %18 = icmp slt i32 %17, 0
  br i1 %18, label %19, label %21

19:                                               ; preds = %1
  %20 = load i32, ptr %6, align 4, !tbaa !33
  store i32 %20, ptr %2, align 4
  store i32 1, ptr %7, align 4
  br label %26

21:                                               ; preds = %1
  %22 = load ptr, ptr %4, align 8, !tbaa !26
  %23 = getelementptr inbounds nuw %struct.WebMChunkContext, ptr %22, i32 0, i32 3
  %24 = load i32, ptr %23, align 4, !tbaa !94
  %25 = add nsw i32 %24, 1
  store i32 %25, ptr %23, align 4, !tbaa !94
  store i32 0, ptr %2, align 4
  store i32 1, ptr %7, align 4
  br label %26

26:                                               ; preds = %21, %19
  call void @llvm.lifetime.end.p0(i64 4, ptr %6) #6
  call void @llvm.lifetime.end.p0(i64 8, ptr %5) #6
  call void @llvm.lifetime.end.p0(i64 8, ptr %4) #6
  %27 = load i32, ptr %2, align 4
  ret i32 %27
}

; Function Attrs: nounwind uwtable
define internal i32 @webm_chunk_write_packet(ptr noundef %0, ptr noundef %1) #0 {
  %3 = alloca i32, align 4
  %4 = alloca ptr, align 8
  %5 = alloca ptr, align 8
  %6 = alloca ptr, align 8
  %7 = alloca ptr, align 8
  %8 = alloca ptr, align 8
  %9 = alloca i32, align 4
  %10 = alloca %struct.AVRational, align 4
  %11 = alloca i32, align 4
  store ptr %0, ptr %4, align 8, !tbaa !4
  store ptr %1, ptr %5, align 8, !tbaa !53
  call void @llvm.lifetime.start.p0(i64 8, ptr %6) #6
  %12 = load ptr, ptr %4, align 8, !tbaa !4
  %13 = getelementptr inbounds nuw %struct.AVFormatContext, ptr %12, i32 0, i32 3
  %14 = load ptr, ptr %13, align 8, !tbaa !9
  store ptr %14, ptr %6, align 8, !tbaa !26
  call void @llvm.lifetime.start.p0(i64 8, ptr %7) #6
  %15 = load ptr, ptr %6, align 8, !tbaa !26
  %16 = getelementptr inbounds nuw %struct.WebMChunkContext, ptr %15, i32 0, i32 7
  %17 = load ptr, ptr %16, align 8, !tbaa !28
  store ptr %17, ptr %7, align 8, !tbaa !4
  call void @llvm.lifetime.start.p0(i64 8, ptr %8) #6
  %18 = load ptr, ptr %4, align 8, !tbaa !4
  %19 = getelementptr inbounds nuw %struct.AVFormatContext, ptr %18, i32 0, i32 7
  %20 = load ptr, ptr %19, align 8, !tbaa !30
  %21 = load ptr, ptr %5, align 8, !tbaa !53
  %22 = getelementptr inbounds nuw %struct.AVPacket, ptr %21, i32 0, i32 5
  %23 = load i32, ptr %22, align 4, !tbaa !55
  %24 = sext i32 %23 to i64
  %25 = getelementptr inbounds ptr, ptr %20, i64 %24
  %26 = load ptr, ptr %25, align 8, !tbaa !31
  store ptr %26, ptr %8, align 8, !tbaa !31
  call void @llvm.lifetime.start.p0(i64 4, ptr %9) #6
  %27 = load ptr, ptr %8, align 8, !tbaa !31
  %28 = getelementptr inbounds nuw %struct.AVStream, ptr %27, i32 0, i32 3
  %29 = load ptr, ptr %28, align 8, !tbaa !56
  %30 = getelementptr inbounds nuw %struct.AVCodecParameters, ptr %29, i32 0, i32 0
  %31 = load i32, ptr %30, align 8, !tbaa !57
  %32 = icmp eq i32 %31, 1
  br i1 %32, label %33, label %63

33:                                               ; preds = %2
  %34 = load ptr, ptr %6, align 8, !tbaa !26
  %35 = getelementptr inbounds nuw %struct.WebMChunkContext, ptr %34, i32 0, i32 6
  %36 = load i64, ptr %35, align 8, !tbaa !60
  %37 = icmp ne i64 %36, -9223372036854775808
  br i1 %37, label %38, label %57

38:                                               ; preds = %33
  %39 = load ptr, ptr %5, align 8, !tbaa !53
  %40 = getelementptr inbounds nuw %struct.AVPacket, ptr %39, i32 0, i32 1
  %41 = load i64, ptr %40, align 8, !tbaa !61
  %42 = load ptr, ptr %6, align 8, !tbaa !26
  %43 = getelementptr inbounds nuw %struct.WebMChunkContext, ptr %42, i32 0, i32 6
  %44 = load i64, ptr %43, align 8, !tbaa !60
  %45 = sub nsw i64 %41, %44
  %46 = load ptr, ptr %8, align 8, !tbaa !31
  %47 = getelementptr inbounds nuw %struct.AVStream, ptr %46, i32 0, i32 5
  %48 = getelementptr inbounds nuw %struct.AVRational, ptr %10, i32 0, i32 0
  store i32 1, ptr %48, align 4, !tbaa !62
  %49 = getelementptr inbounds nuw %struct.AVRational, ptr %10, i32 0, i32 1
  store i32 1000, ptr %49, align 4, !tbaa !63
  %50 = load i64, ptr %47, align 8
  %51 = load i64, ptr %10, align 4
  %52 = call i64 @av_rescale_q(i64 noundef %45, i64 %50, i64 %51) #7
  %53 = load ptr, ptr %6, align 8, !tbaa !26
  %54 = getelementptr inbounds nuw %struct.WebMChunkContext, ptr %53, i32 0, i32 5
  %55 = load i64, ptr %54, align 8, !tbaa !64
  %56 = add i64 %55, %52
  store i64 %56, ptr %54, align 8, !tbaa !64
  br label %57

57:                                               ; preds = %38, %33
  %58 = load ptr, ptr %5, align 8, !tbaa !53
  %59 = getelementptr inbounds nuw %struct.AVPacket, ptr %58, i32 0, i32 1
  %60 = load i64, ptr %59, align 8, !tbaa !61
  %61 = load ptr, ptr %6, align 8, !tbaa !26
  %62 = getelementptr inbounds nuw %struct.WebMChunkContext, ptr %61, i32 0, i32 6
  store i64 %60, ptr %62, align 8, !tbaa !60
  br label %63

63:                                               ; preds = %57, %2
  %64 = load ptr, ptr %7, align 8, !tbaa !4
  %65 = getelementptr inbounds nuw %struct.AVFormatContext, ptr %64, i32 0, i32 4
  %66 = load ptr, ptr %65, align 8, !tbaa !65
  %67 = icmp ne ptr %66, null
  br i1 %67, label %68, label %97

68:                                               ; preds = %63
  %69 = load ptr, ptr %8, align 8, !tbaa !31
  %70 = getelementptr inbounds nuw %struct.AVStream, ptr %69, i32 0, i32 3
  %71 = load ptr, ptr %70, align 8, !tbaa !56
  %72 = getelementptr inbounds nuw %struct.AVCodecParameters, ptr %71, i32 0, i32 0
  %73 = load i32, ptr %72, align 8, !tbaa !57
  %74 = icmp eq i32 %73, 0
  br i1 %74, label %75, label %81

75:                                               ; preds = %68
  %76 = load ptr, ptr %5, align 8, !tbaa !53
  %77 = getelementptr inbounds nuw %struct.AVPacket, ptr %76, i32 0, i32 6
  %78 = load i32, ptr %77, align 8, !tbaa !66
  %79 = and i32 %78, 1
  %80 = icmp ne i32 %79, 0
  br i1 %80, label %97, label %81

81:                                               ; preds = %75, %68
  %82 = load ptr, ptr %8, align 8, !tbaa !31
  %83 = getelementptr inbounds nuw %struct.AVStream, ptr %82, i32 0, i32 3
  %84 = load ptr, ptr %83, align 8, !tbaa !56
  %85 = getelementptr inbounds nuw %struct.AVCodecParameters, ptr %84, i32 0, i32 0
  %86 = load i32, ptr %85, align 8, !tbaa !57
  %87 = icmp eq i32 %86, 1
  br i1 %87, label %88, label %110

88:                                               ; preds = %81
  %89 = load ptr, ptr %6, align 8, !tbaa !26
  %90 = getelementptr inbounds nuw %struct.WebMChunkContext, ptr %89, i32 0, i32 5
  %91 = load i64, ptr %90, align 8, !tbaa !64
  %92 = load ptr, ptr %6, align 8, !tbaa !26
  %93 = getelementptr inbounds nuw %struct.WebMChunkContext, ptr %92, i32 0, i32 2
  %94 = load i32, ptr %93, align 8, !tbaa !67
  %95 = sext i32 %94 to i64
  %96 = icmp uge i64 %91, %95
  br i1 %96, label %97, label %110

97:                                               ; preds = %88, %75, %63
  %98 = load ptr, ptr %6, align 8, !tbaa !26
  %99 = getelementptr inbounds nuw %struct.WebMChunkContext, ptr %98, i32 0, i32 5
  store i64 0, ptr %99, align 8, !tbaa !64
  %100 = load ptr, ptr %4, align 8, !tbaa !4
  %101 = call i32 @chunk_end(ptr noundef %100, i32 noundef 1)
  store i32 %101, ptr %9, align 4, !tbaa !33
  %102 = icmp slt i32 %101, 0
  br i1 %102, label %107, label %103

103:                                              ; preds = %97
  %104 = load ptr, ptr %4, align 8, !tbaa !4
  %105 = call i32 @chunk_start(ptr noundef %104)
  store i32 %105, ptr %9, align 4, !tbaa !33
  %106 = icmp slt i32 %105, 0
  br i1 %106, label %107, label %109

107:                                              ; preds = %103, %97
  %108 = load i32, ptr %9, align 4, !tbaa !33
  store i32 %108, ptr %3, align 4
  store i32 1, ptr %11, align 4
  br label %114

109:                                              ; preds = %103
  br label %110

110:                                              ; preds = %109, %88, %81
  %111 = load ptr, ptr %7, align 8, !tbaa !4
  %112 = load ptr, ptr %5, align 8, !tbaa !53
  %113 = call i32 @av_write_frame(ptr noundef %111, ptr noundef %112)
  store i32 %113, ptr %3, align 4
  store i32 1, ptr %11, align 4
  br label %114

114:                                              ; preds = %110, %107
  call void @llvm.lifetime.end.p0(i64 4, ptr %9) #6
  call void @llvm.lifetime.end.p0(i64 8, ptr %8) #6
  call void @llvm.lifetime.end.p0(i64 8, ptr %7) #6
  call void @llvm.lifetime.end.p0(i64 8, ptr %6) #6
  %115 = load i32, ptr %3, align 4
  ret i32 %115
}