; Function Attrs: nounwind uwtable
define internal i32 @webm_chunk_write_packet(ptr noundef %0, ptr noundef %1) #0 {
  %3 = getelementptr inbounds nuw i8, ptr %0, i64 24
  %4 = load ptr, ptr %3, align 8, !tbaa !4
  %5 = getelementptr inbounds nuw i8, ptr %4, i64 48
  %6 = load ptr, ptr %5, align 8, !tbaa !24
  %7 = getelementptr inbounds nuw i8, ptr %0, i64 48
  %8 = load ptr, ptr %7, align 8, !tbaa !27
  %9 = getelementptr inbounds nuw i8, ptr %1, i64 36
  %10 = load i32, ptr %9, align 4, !tbaa !49
  %11 = sext i32 %10 to i64
  %12 = getelementptr inbounds ptr, ptr %8, i64 %11
  %13 = load ptr, ptr %12, align 8, !tbaa !28
  %14 = getelementptr inbounds nuw i8, ptr %13, i64 16
  %15 = load ptr, ptr %14, align 8, !tbaa !50
  %16 = load i32, ptr %15, align 8, !tbaa !51
  %17 = icmp eq i32 %16, 1
  br i1 %17, label %18, label %29

18:                                               ; preds = %2
  %19 = getelementptr inbounds nuw i8, ptr %4, i64 40
  %20 = load i64, ptr %19, align 8, !tbaa !54
  %.not = icmp eq i64 %20, -9223372036854775808
  %.phi.trans.insert = getelementptr inbounds nuw i8, ptr %1, i64 8
  %.pre = load i64, ptr %.phi.trans.insert, align 8, !tbaa !55
  br i1 %.not, label %.thread, label %21

21:                                               ; preds = %18
  %22 = sub nsw i64 %.pre, %20
  %23 = getelementptr inbounds nuw i8, ptr %13, i64 32
  %24 = load i64, ptr %23, align 8
  %25 = tail call i64 @av_rescale_q(i64 noundef %22, i64 %24, i64 4294967296001) #7
  %26 = getelementptr inbounds nuw i8, ptr %4, i64 32
  %27 = load i64, ptr %26, align 8, !tbaa !56
  %28 = add i64 %27, %25
  store i64 %28, ptr %26, align 8, !tbaa !56
  br label %.thread

29:                                               ; preds = %2
  %30 = getelementptr inbounds nuw i8, ptr %6, i64 32
  %31 = load ptr, ptr %30, align 8, !tbaa !57
  %.not28 = icmp eq ptr %31, null
  br i1 %.not28, label %46, label %34

.thread:                                          ; preds = %18, %21
  store i64 %.pre, ptr %19, align 8, !tbaa !54
  %32 = getelementptr inbounds nuw i8, ptr %6, i64 32
  %33 = load ptr, ptr %32, align 8, !tbaa !57
  %.not2831 = icmp eq ptr %33, null
  br i1 %.not2831, label %46, label %40

34:                                               ; preds = %29
  %35 = icmp eq i32 %16, 0
  br i1 %35, label %36, label %.thread33

36:                                               ; preds = %34
  %37 = getelementptr inbounds nuw i8, ptr %1, i64 40
  %38 = load i32, ptr %37, align 8, !tbaa !58
  %39 = and i32 %38, 1
  %.not29 = icmp eq i32 %39, 0
  br i1 %.not29, label %.thread33, label %46

40:                                               ; preds = %.thread
  %41 = getelementptr inbounds nuw i8, ptr %4, i64 32
  %42 = load i64, ptr %41, align 8, !tbaa !56
  %43 = getelementptr inbounds nuw i8, ptr %4, i64 16
  %44 = load i32, ptr %43, align 8, !tbaa !59
  %45 = sext i32 %44 to i64
  %.not30 = icmp ult i64 %42, %45
  br i1 %.not30, label %.thread33, label %46

46:                                               ; preds = %.thread, %40, %36, %29
  %47 = getelementptr inbounds nuw i8, ptr %4, i64 32
  store i64 0, ptr %47, align 8, !tbaa !56
  %48 = tail call fastcc i32 @chunk_end(ptr noundef nonnull %0, i32 noundef 1)
  %49 = icmp slt i32 %48, 0
  br i1 %49, label %chunk_start.exit.thread, label %50

50:                                               ; preds = %46
  %.val = load ptr, ptr %3, align 8, !tbaa !4
  %51 = getelementptr inbounds nuw i8, ptr %.val, i64 48
  %52 = load ptr, ptr %51, align 8, !tbaa !24
  %53 = getelementptr inbounds nuw i8, ptr %52, i64 32
  %54 = tail call i32 @avio_open_dyn_buf(ptr noundef nonnull %53) #6
  %55 = icmp slt i32 %54, 0
  br i1 %55, label %chunk_start.exit.thread, label %chunk_start.exit

chunk_start.exit:                                 ; preds = %50
  %56 = getelementptr inbounds nuw i8, ptr %.val, i64 20
  %57 = load i32, ptr %56, align 4, !tbaa !60
  %58 = add nsw i32 %57, 1
  store i32 %58, ptr %56, align 4, !tbaa !60
  br label %.thread33

.thread33:                                        ; preds = %34, %36, %chunk_start.exit, %40
  %59 = tail call i32 @av_write_frame(ptr noundef nonnull %6, ptr noundef nonnull %1) #6
  br label %chunk_start.exit.thread

chunk_start.exit.thread:                          ; preds = %50, %46, %.thread33
  %.0 = phi i32 [ %59, %.thread33 ], [ %48, %46 ], [ %54, %50 ]
  ret i32 %.0
}